; ModuleID = '1/2114.c'
source_filename = "1/2114.c"
target datalayout = "e-m:e-p270:32:32-p271:32:32-p272:64:64-i64:64-f80:128-n8:16:32:64-S128"
target triple = "x86_64-pc-linux-gnu"

@.str = private unnamed_addr constant [3 x i8] c"%d\00", align 1
@.str.1 = private unnamed_addr constant [4 x i8] c"%d\0A\00", align 1

; Function Attrs: noinline nounwind uwtable
define dso_local i32 @min(i32 %0, i32 %1) #0 {
  %3 = alloca i32, align 4
  %4 = alloca i32, align 4
  %5 = alloca i32, align 4
  store i32 %0, i32* %4, align 4
  store i32 %1, i32* %5, align 4
  %6 = load i32, i32* %4, align 4
  %7 = load i32, i32* %5, align 4
  %8 = icmp sge i32 %6, %7
  br i1 %8, label %9, label %11

9:                                                ; preds = %2
  %10 = load i32, i32* %5, align 4
  store i32 %10, i32* %3, align 4
  br label %13

11:                                               ; preds = %2
  %12 = load i32, i32* %4, align 4
  store i32 %12, i32* %3, align 4
  br label %13

13:                                               ; preds = %11, %9
  %14 = load i32, i32* %3, align 4
  ret i32 %14
}

; Function Attrs: noinline nounwind uwtable
define dso_local i32 @f(i32 %0, i32 %1) #0 {
  %3 = alloca i32, align 4
  %4 = alloca i32, align 4
  %5 = alloca i32, align 4
  %6 = alloca i32, align 4
  %7 = alloca [32768 x i32], align 16
  %8 = alloca i32, align 4
  %9 = alloca i32, align 4
  store i32 %0, i32* %4, align 4
  store i32 %1, i32* %5, align 4
  store i32 0, i32* %6, align 4
  %10 = bitcast [32768 x i32]* %7 to i8*
  call void @llvm.memset.p0i8.i64(i8* align 16 %10, i8 0, i64 131072, i1 false)
  %11 = load i32, i32* %4, align 4
  %12 = icmp eq i32 %11, 1
  br i1 %12, label %13, label %14

13:                                               ; preds = %2
  store i32 1, i32* %3, align 4
  br label %65

14:                                               ; preds = %2
  %15 = load i32, i32* %4, align 4
  %16 = load i32, i32* %5, align 4
  %17 = call i32 @min(i32 %15, i32 %16)
  store i32 %17, i32* %8, align 4
  br label %18

18:                                               ; preds = %32, %14
  %19 = load i32, i32* %8, align 4
  %20 = icmp sge i32 %19, 2
  br i1 %20, label %21, label %35

21:                                               ; preds = %18
  %22 = load i32, i32* %4, align 4
  %23 = load i32, i32* %8, align 4
  %24 = srem i32 %22, %23
  %25 = icmp eq i32 %24, 0
  br i1 %25, label %26, label %31

26:                                               ; preds = %21
  %27 = load i32, i32* %8, align 4
  %28 = load i32, i32* %8, align 4
  %29 = sext i32 %28 to i64
  %30 = getelementptr inbounds [32768 x i32], [32768 x i32]* %7, i64 0, i64 %29
  store i32 %27, i32* %30, align 4
  br label %31

31:                                               ; preds = %26, %21
  br label %32

32:                                               ; preds = %31
  %33 = load i32, i32* %8, align 4
  %34 = add nsw i32 %33, -1
  store i32 %34, i32* %8, align 4
  br label %18

35:                                               ; preds = %18
  store i32 0, i32* %9, align 4
  br label %36

36:                                               ; preds = %60, %35
  %37 = load i32, i32* %9, align 4
  %38 = icmp slt i32 %37, 32768
  br i1 %38, label %39, label %63

39:                                               ; preds = %36
  %40 = load i32, i32* %9, align 4
  %41 = sext i32 %40 to i64
  %42 = getelementptr inbounds [32768 x i32], [32768 x i32]* %7, i64 0, i64 %41
  %43 = load i32, i32* %42, align 4
  %44 = icmp ne i32 %43, 0
  br i1 %44, label %45, label %59

45:                                               ; preds = %39
  %46 = load i32, i32* %6, align 4
  %47 = load i32, i32* %4, align 4
  %48 = load i32, i32* %9, align 4
  %49 = sext i32 %48 to i64
  %50 = getelementptr inbounds [32768 x i32], [32768 x i32]* %7, i64 0, i64 %49
  %51 = load i32, i32* %50, align 4
  %52 = sdiv i32 %47, %51
  %53 = load i32, i32* %9, align 4
  %54 = call i32 @f(i32 %52, i32 %53)
  %55 = add nsw i32 %46, %54
  store i32 %55, i32* %6, align 4
  %56 = load i32, i32* %9, align 4
  %57 = sext i32 %56 to i64
  %58 = getelementptr inbounds [32768 x i32], [32768 x i32]* %7, i64 0, i64 %57
  store i32 0, i32* %58, align 4
  br label %59

59:                                               ; preds = %45, %39
  br label %60

60:                                               ; preds = %59
  %61 = load i32, i32* %9, align 4
  %62 = add nsw i32 %61, 1
  store i32 %62, i32* %9, align 4
  br label %36

63:                                               ; preds = %36
  %64 = load i32, i32* %6, align 4
  store i32 %64, i32* %3, align 4
  br label %65

65:                                               ; preds = %63, %13
  %66 = load i32, i32* %3, align 4
  ret i32 %66
}

; Function Attrs: argmemonly nounwind willreturn
declare void @llvm.memset.p0i8.i64(i8* nocapture writeonly, i8, i64, i1 immarg) #1

; Function Attrs: noinline nounwind uwtable
define dso_local i32 @main() #0 {
  %1 = alloca i32, align 4
  %2 = alloca i32, align 4
  %3 = alloca i32, align 4
  %4 = alloca i32, align 4
  %5 = alloca i32, align 4
  store i32 0, i32* %1, align 4
  %6 = call i32 (i8*, ...) @__isoc99_scanf(i8* getelementptr inbounds ([3 x i8], [3 x i8]* @.str, i64 0, i64 0), i32* %2)
  store i32 0, i32* %3, align 4
  br label %7

7:                                                ; preds = %18, %0
  %8 = load i32, i32* %3, align 4
  %9 = load i32, i32* %2, align 4
  %10 = icmp slt i32 %8, %9
  br i1 %10, label %11, label %21

11:                                               ; preds = %7
  %12 = call i32 (i8*, ...) @__isoc99_scanf(i8* getelementptr inbounds ([3 x i8], [3 x i8]* @.str, i64 0, i64 0), i32* %4)
  %13 = load i32, i32* %4, align 4
  %14 = load i32, i32* %4, align 4
  %15 = call i32 @f(i32 %13, i32 %14)
  store i32 %15, i32* %5, align 4
  %16 = load i32, i32* %5, align 4
  %17 = call i32 (i8*, ...) @printf(i8* getelementptr inbounds ([4 x i8], [4 x i8]* @.str.1, i64 0, i64 0), i32 %16)
  br label %18

18:                                               ; preds = %11
  %19 = load i32, i32* %3, align 4
  %20 = add nsw i32 %19, 1
  store i32 %20, i32* %3, align 4
  br label %7

21:                                               ; preds = %7
  %22 = load i32, i32* %1, align 4
  ret i32 %22
}

declare dso_local i32 @__isoc99_scanf(i8*, ...) #2

declare dso_local i32 @printf(i8*, ...) #2


!llvm.module.flags = !{!0}
!llvm.ident = !{!1}

!0 = !{i32 1, !"wchar_size", i32 4}
!1 = !{!"clang version 10.0.0-4ubuntu1 "}
